target datalayout = "e-m:e-p270:32:32-p271:32:32-p272:64:64-i64:64-i128:128-f80:128-n8:16:32:64-S128"
target triple = "x86_64-pc-linux-gnu"

%class.DCmdWithParser = type { %class.DCmd.base, %class.DCmdParser }
%class.DCmd.base = type <{ ptr, ptr, i8 }>
%class.DCmdParser = type { ptr, ptr }
%class.DCmdArgument = type { %class.GenDCmdArgument.base, i8, [4 x i8] }
%class.GenDCmdArgument.base = type <{ ptr, ptr, ptr, ptr, ptr, ptr, i8, i8, i8 }>
%class.DCmd = type <{ ptr, ptr, i8, [7 x i8] }>
%class.GenDCmdArgument = type <{ ptr, ptr, ptr, ptr, ptr, ptr, i8, i8, i8, [5 x i8] }>
%class.DCmdArgument.100 = type { %class.GenDCmdArgument.base, i64 }
%class.ClassHistogramDCmd = type { %class.DCmdWithParser, %class.DCmdArgument, %class.DCmdArgument.100 }

@.str = private unnamed_addr constant [5 x i8] c"-all\00", align 1
@.str.5 = private unnamed_addr constant [8 x i8] c"BOOLEAN\00", align 1
@.str.6 = private unnamed_addr constant [6 x i8] c"false\00", align 1
@.str.52 = private unnamed_addr constant [4 x i8] c"INT\00", align 1
@.str.56 = private unnamed_addr constant [10 x i8] c"-parallel\00", align 1
@.str.60 = private unnamed_addr constant [51 x i8] c"Inspect all objects, including unreachable objects\00", align 1
@.str.62 = private unnamed_addr constant [2 x i8] c"0\00", align 1
@_ZTV14DCmdWithParser = external unnamed_addr constant { [9 x ptr] }, align 8
@_ZTV15GenDCmdArgument = linkonce_odr hidden unnamed_addr constant { [7 x ptr] } { [7 x ptr] [ptr null, ptr null, ptr @__cxa_pure_virtual, ptr @__cxa_pure_virtual, ptr @__cxa_pure_virtual, ptr @__cxa_pure_virtual, ptr @__cxa_pure_virtual] }, comdat, align 8

; Function Attrs: mustprogress nounwind uwtable
define linkonce_odr hidden void @_ZN15GenDCmdArgumentC2EPKcS1_S1_S1_b(ptr noundef nonnull align 8 dereferenceable(51) %0, ptr noundef %1, ptr noundef %2, ptr noundef %3, ptr noundef %4, i1 noundef zeroext %5) unnamed_addr #1 comdat align 2 {
  %7 = alloca ptr, align 8
  %8 = alloca ptr, align 8
  %9 = alloca ptr, align 8
  %10 = alloca ptr, align 8
  %11 = alloca ptr, align 8
  %12 = alloca i8, align 1
  store ptr %0, ptr %7, align 8
  store ptr %1, ptr %8, align 8
  store ptr %2, ptr %9, align 8
  store ptr %3, ptr %10, align 8
  store ptr %4, ptr %11, align 8
  %13 = zext i1 %5 to i8
  store i8 %13, ptr %12, align 1
  %14 = load ptr, ptr %7, align 8
  store ptr getelementptr inbounds inrange(-16, 40) ({ [7 x ptr] }, ptr @_ZTV15GenDCmdArgument, i32 0, i32 0, i32 2), ptr %14, align 8
  %15 = getelementptr inbounds %class.GenDCmdArgument, ptr %14, i32 0, i32 1
  store ptr null, ptr %15, align 8
  %16 = getelementptr inbounds %class.GenDCmdArgument, ptr %14, i32 0, i32 2
  %17 = load ptr, ptr %8, align 8
  store ptr %17, ptr %16, align 8
  %18 = getelementptr inbounds %class.GenDCmdArgument, ptr %14, i32 0, i32 3
  %19 = load ptr, ptr %9, align 8
  store ptr %19, ptr %18, align 8
  %20 = getelementptr inbounds %class.GenDCmdArgument, ptr %14, i32 0, i32 4
  %21 = load ptr, ptr %10, align 8
  store ptr %21, ptr %20, align 8
  %22 = getelementptr inbounds %class.GenDCmdArgument, ptr %14, i32 0, i32 5
  %23 = load ptr, ptr %11, align 8
  store ptr %23, ptr %22, align 8
  %24 = getelementptr inbounds %class.GenDCmdArgument, ptr %14, i32 0, i32 6
  store i8 0, ptr %24, align 8
  %25 = getelementptr inbounds %class.GenDCmdArgument, ptr %14, i32 0, i32 7
  %26 = load i8, ptr %12, align 1
  %27 = trunc i8 %26 to i1
  %28 = zext i1 %27 to i8
  store i8 %28, ptr %25, align 1
  %29 = getelementptr inbounds %class.GenDCmdArgument, ptr %14, i32 0, i32 8
  store i8 0, ptr %29, align 2
  ret void
}

; Function Attrs: mustprogress nounwind uwtable
define linkonce_odr hidden void @_ZN10DCmdParserC2Ev(ptr noundef nonnull align 8 dereferenceable(16) %0) unnamed_addr #1 comdat align 2 {
  %2 = alloca ptr, align 8
  store ptr %0, ptr %2, align 8
  %3 = load ptr, ptr %2, align 8
  %4 = getelementptr inbounds %class.DCmdParser, ptr %3, i32 0, i32 0
  store ptr null, ptr %4, align 8
  %5 = getelementptr inbounds %class.DCmdParser, ptr %3, i32 0, i32 1
  store ptr null, ptr %5, align 8
  ret void
}

; Function Attrs: mustprogress nounwind uwtable
define linkonce_odr hidden void @_ZN4DCmdC2EP12outputStreamb(ptr noundef nonnull align 8 dereferenceable(17) %0, ptr noundef %1, i1 noundef zeroext %2) unnamed_addr #1 comdat align 2 {
  %4 = alloca ptr, align 8
  %5 = alloca ptr, align 8
  %6 = alloca i8, align 1
  store ptr %0, ptr %4, align 8
  store ptr %1, ptr %5, align 8
  %7 = zext i1 %2 to i8
  store i8 %7, ptr %6, align 1
  %8 = load ptr, ptr %4, align 8
  store ptr getelementptr inbounds inrange(-16, 56) ({ [9 x ptr] }, ptr @_ZTV4DCmd, i32 0, i32 0, i32 2), ptr %8, align 8
  %9 = getelementptr inbounds %class.DCmd, ptr %8, i32 0, i32 1
  %10 = load ptr, ptr %5, align 8
  store ptr %10, ptr %9, align 8
  %11 = getelementptr inbounds %class.DCmd, ptr %8, i32 0, i32 2
  %12 = load i8, ptr %6, align 1
  %13 = trunc i8 %12 to i1
  %14 = zext i1 %13 to i8
  store i8 %14, ptr %11, align 8
  ret void
}

; Function Attrs: mustprogress nounwind uwtable
define linkonce_odr hidden void @_ZN12DCmdArgumentIlEC2EPKcS2_S2_bS2_(ptr noundef nonnull align 8 dereferenceable(64) %0, ptr noundef %1, ptr noundef %2, ptr noundef %3, i1 noundef zeroext %4, ptr noundef %5) unnamed_addr #1 comdat align 2 {
  %7 = alloca ptr, align 8
  %8 = alloca ptr, align 8
  %9 = alloca ptr, align 8
  %10 = alloca ptr, align 8
  %11 = alloca i8, align 1
  %12 = alloca ptr, align 8
  store ptr %0, ptr %7, align 8
  store ptr %1, ptr %8, align 8
  store ptr %2, ptr %9, align 8
  store ptr %3, ptr %10, align 8
  %13 = zext i1 %4 to i8
  store i8 %13, ptr %11, align 1
  store ptr %5, ptr %12, align 8
  %14 = load ptr, ptr %7, align 8
  %15 = load ptr, ptr %8, align 8
  %16 = load ptr, ptr %9, align 8
  %17 = load ptr, ptr %10, align 8
  %18 = load ptr, ptr %12, align 8
  %19 = load i8, ptr %11, align 1
  %20 = trunc i8 %19 to i1
  call void @_ZN15GenDCmdArgumentC2EPKcS1_S1_S1_b(ptr noundef nonnull align 8 dereferenceable(51) %14, ptr noundef %15, ptr noundef %16, ptr noundef %17, ptr noundef %18, i1 noundef zeroext %20)
  store ptr getelementptr inbounds inrange(-16, 40) ({ [7 x ptr] }, ptr @_ZTV12DCmdArgumentIlE, i32 0, i32 0, i32 2), ptr %14, align 8
  ret void
}

; Function Attrs: mustprogress nounwind uwtable
define linkonce_odr hidden void @_ZN12DCmdArgumentIbEC2EPKcS2_S2_bS2_(ptr noundef nonnull align 8 dereferenceable(52) %0, ptr noundef %1, ptr noundef %2, ptr noundef %3, i1 noundef zeroext %4, ptr noundef %5) unnamed_addr #1 comdat align 2 {
  %7 = alloca ptr, align 8
  %8 = alloca ptr, align 8
  %9 = alloca ptr, align 8
  %10 = alloca ptr, align 8
  %11 = alloca i8, align 1
  %12 = alloca ptr, align 8
  store ptr %0, ptr %7, align 8
  store ptr %1, ptr %8, align 8
  store ptr %2, ptr %9, align 8
  store ptr %3, ptr %10, align 8
  %13 = zext i1 %4 to i8
  store i8 %13, ptr %11, align 1
  store ptr %5, ptr %12, align 8
  %14 = load ptr, ptr %7, align 8
  %15 = load ptr, ptr %8, align 8
  %16 = load ptr, ptr %9, align 8
  %17 = load ptr, ptr %10, align 8
  %18 = load ptr, ptr %12, align 8
  %19 = load i8, ptr %11, align 1
  %20 = trunc i8 %19 to i1
  call void @_ZN15GenDCmdArgumentC2EPKcS1_S1_S1_b(ptr noundef nonnull align 8 dereferenceable(51) %14, ptr noundef %15, ptr noundef %16, ptr noundef %17, ptr noundef %18, i1 noundef zeroext %20)
  store ptr getelementptr inbounds inrange(-16, 40) ({ [7 x ptr] }, ptr @_ZTV12DCmdArgumentIbE, i32 0, i32 0, i32 2), ptr %14, align 8
  ret void
}

; Function Attrs: mustprogress nounwind uwtable
define linkonce_odr hidden void @_ZN14DCmdWithParserC2EP12outputStreamb(ptr noundef nonnull align 8 dereferenceable(40) %0, ptr noundef %1, i1 noundef zeroext %2) unnamed_addr #1 comdat align 2 {
  %4 = alloca ptr, align 8
  %5 = alloca ptr, align 8
  %6 = alloca i8, align 1
  store ptr %0, ptr %4, align 8
  store ptr %1, ptr %5, align 8
  %7 = zext i1 %2 to i8
  store i8 %7, ptr %6, align 1
  %8 = load ptr, ptr %4, align 8
  %9 = load ptr, ptr %5, align 8
  %10 = load i8, ptr %6, align 1
  %11 = trunc i8 %10 to i1
  call void @_ZN4DCmdC2EP12outputStreamb(ptr noundef nonnull align 8 dereferenceable(17) %8, ptr noundef %9, i1 noundef zeroext %11)
  store ptr getelementptr inbounds inrange(-16, 56) ({ [9 x ptr] }, ptr @_ZTV14DCmdWithParser, i32 0, i32 0, i32 2), ptr %8, align 8
  %12 = getelementptr inbounds %class.DCmdWithParser, ptr %8, i32 0, i32 1
  call void @_ZN10DCmdParserC2Ev(ptr noundef nonnull align 8 dereferenceable(16) %12)
  ret void
}

; Function Attrs: mustprogress nounwind uwtable
define hidden void @_ZN18ClassHistogramDCmdC2EP12outputStreamb(ptr noundef nonnull align 8 dereferenceable(160) %0, ptr noundef %1, i1 noundef zeroext %2) unnamed_addr #1 align 2 {
  %4 = alloca ptr, align 8
  %5 = alloca ptr, align 8
  %6 = alloca i8, align 1
  store ptr %0, ptr %4, align 8
  store ptr %1, ptr %5, align 8
  %7 = zext i1 %2 to i8
  store i8 %7, ptr %6, align 1
  %8 = load ptr, ptr %4, align 8
  %9 = load ptr, ptr %5, align 8
  %10 = load i8, ptr %6, align 1
  %11 = trunc i8 %10 to i1
  call void @_ZN14DCmdWithParserC2EP12outputStreamb(ptr noundef nonnull align 8 dereferenceable(40) %8, ptr noundef %9, i1 noundef zeroext %11)
  store ptr getelementptr inbounds inrange(-16, 56) ({ [9 x ptr] }, ptr @_ZTV18ClassHistogramDCmd, i32 0, i32 0, i32 2), ptr %8, align 8
  %12 = getelementptr inbounds %class.ClassHistogramDCmd, ptr %8, i32 0, i32 1
  call void @_ZN12DCmdArgumentIbEC2EPKcS2_S2_bS2_(ptr noundef nonnull align 8 dereferenceable(52) %12, ptr noundef @.str, ptr noundef @.str.60, ptr noundef @.str.5, i1 noundef zeroext false, ptr noundef @.str.6)
  %13 = getelementptr inbounds %class.ClassHistogramDCmd, ptr %8, i32 0, i32 2
  call void @_ZN12DCmdArgumentIlEC2EPKcS2_S2_bS2_(ptr noundef nonnull align 8 dereferenceable(64) %13, ptr noundef @.str.56, ptr noundef @.str.61, ptr noundef @.str.52, i1 noundef zeroext false, ptr noundef @.str.62)
  %14 = getelementptr inbounds %class.DCmdWithParser, ptr %8, i32 0, i32 1
  %15 = getelementptr inbounds %class.ClassHistogramDCmd, ptr %8, i32 0, i32 1
  call void @_ZN10DCmdParser15add_dcmd_optionEP15GenDCmdArgument(ptr noundef nonnull align 8 dereferenceable(16) %14, ptr noundef %15)
  %16 = getelementptr inbounds %class.DCmdWithParser, ptr %8, i32 0, i32 1
  %17 = getelementptr inbounds %class.ClassHistogramDCmd, ptr %8, i32 0, i32 2
  call void @_ZN10DCmdParser15add_dcmd_optionEP15GenDCmdArgument(ptr noundef nonnull align 8 dereferenceable(16) %16, ptr noundef %17)
  ret void
}